-----BEGIN CERTIFICATE REQUEST-----
MIIBQDCB5wIBADAUMRIwEAYDVQQDDAlsb2NhbGhvc3QwWTATBgcqhkjOPQIBBggq
hkjOPQMBBwNCAATH3WVUr9EPeXmuv6lqcilyhBV3Al9vyB0D3nnNsyaAKJCTfZAp
BmpviG9mPdh+EnrWXjzNOLQsRcou/07CuzoWoHEwbwYJKoZIhvcNAQkOMWIwYDAJ
BgNVHRMEAjAAMAsGA1UdDwQEAwIFoDATBgNVHSUEDDAKBggrBgEFBQcDATAxBgNV
HREEKjAogglsb2NhbGhvc3SCCTEyNy4wLjAuMYcQAAAAAAAAAAAAAAAAAAAAATAK
BggqhkjOPQQDAgNIADBFAiB9403hUTDyAaPvMlQpe7wQRu1JQCHHQHKvpuvkhaRC
BwIhAIpkkvxIF41K4n4vJSIRgY7etIFji3TeDOfHTaV+lPHt
-----END CERTIFICATE REQUEST-----

ts on  work [✘»!+?] via 🐍 v3.14.0 (did-web-annuaire-be)
❯ openssl ecparam -genkey -name prime256v1 -out nginx-ec.key

did-web-annuaire-be/nginx-certs on  work [✘»!+?] via 🐍 v3.14.0 (did-web-annuaire-be)
❯ nano req-ec.conf

did-web-annuaire-be/nginx-certs on  work [✘»!+?] via 🐍 v3.14.0 (did-web-annuaire-be)
❯ openssl req -new \
  -key nginx-ec.key \
  -out nginx-ec.csr \
  -config req-ec.conf

did-web-annuaire-be/nginx-certs on  work [✘»!+?] via 🐍 v3.14.0 (did-web-annuaire-be)
❯ openssl req -in nginx-ec.csr -noout -text
Certificate Request:
    Data:
        Version: 1 (0x0)
        Subject: CN = localhost
        Subject Public Key Info:
            Public Key Algorithm: id-ecPublicKey
                Public-Key: (256 bit)
                pub:
                    04:c7:dd:65:54:af:d1:0f:79:79:ae:bf:a9:6a:72:
                    29:72:84:15:77:02:5f:6f:c8:1d:03:de:79:cd:b3:
                    26:80:28:90:93:7d:90:29:06:6a:6f:88:6f:66:3d:
                    d8:7e:12:7a:d6:5e:3c:cd:38:b4:2c:45:ca:2e:ff:
                    4e:c2:bb:3a:16
                ASN1 OID: prime256v1
                NIST CURVE: P-256
        Attributes:
            Requested Extensions:
                X509v3 Basic Constraints:
                    CA:FALSE
                X509v3 Key Usage:
                    Digital Signature, Key Encipherment
                X509v3 Extended Key Usage:
                    TLS Web Server Authentication
                X509v3 Subject Alternative Name:
                    DNS:localhost, DNS:127.0.0.1, IP Address:0:0:0:0:0:0:0:1
    Signature Algorithm: ecdsa-with-SHA256
    Signature Value:
        30:45:02:20:7d:e3:4d:e1:51:30:f2:01:a3:ef:32:54:29:7b:
        bc:10:46:ed:49:40:21:c7:40:72:af:a6:eb:e4:85:a4:42:07:
        02:21:00:8a:64:92:fc:48:17:8d:4a:e2:7e:2f:25:22:11:81:
        8e:de:b4:81:63:8b:74:de:0c:e7:c7:4d:a5:7e:94:f1:ed